target datalayout = "e-m:e-p270:32:32-p271:32:32-p272:64:64-i64:64-i128:128-f80:128-n8:16:32:64-S128"
target triple = "x86_64-pc-linux-gnu"

%struct._header_data = type { i32, ptr }

@.str.14 = private unnamed_addr constant [12 x i8] c"Set-Cookie:\00", align 1
@.str.15 = private unnamed_addr constant [31 x i8] c"header_cb(): malformed cookie\0A\00", align 1
@.str.16 = private unnamed_addr constant [28 x i8] c"header_cb(): malloc failed\0A\00", align 1
@.str.17 = private unnamed_addr constant [20 x i8] c"_clamav-net_session\00", align 1
@.str.18 = private unnamed_addr constant [34 x i8] c"header_cb(): unrecognized cookie\0A\00", align 1

; Function Attrs: nounwind uwtable
define dso_local i64 @header_cb(ptr noundef %0, i64 noundef %1, i64 noundef %2, ptr noundef %3) #0 {
  %5 = alloca i64, align 8
  %6 = alloca ptr, align 8
  %7 = alloca i64, align 8
  %8 = alloca i64, align 8
  %9 = alloca ptr, align 8
  %10 = alloca i32, align 4
  %11 = alloca ptr, align 8
  %12 = alloca ptr, align 8
  %13 = alloca ptr, align 8
  %14 = alloca ptr, align 8
  %15 = alloca ptr, align 8
  %16 = alloca i32, align 4
  store ptr %0, ptr %6, align 8
  store i64 %1, ptr %7, align 8
  store i64 %2, ptr %8, align 8
  store ptr %3, ptr %9, align 8
  %17 = load i64, ptr %7, align 8
  %18 = load i64, ptr %8, align 8
  %19 = mul i64 %17, %18
  %20 = trunc i64 %19 to i32
  store i32 %20, ptr %10, align 4
  %21 = load ptr, ptr %9, align 8
  store ptr %21, ptr %14, align 8
  store ptr @.str.14, ptr %15, align 8
  %22 = load ptr, ptr %15, align 8
  %23 = call i64 @strlen(ptr noundef %22) #10
  %24 = trunc i64 %23 to i32
  store i32 %24, ptr %16, align 4
  %25 = load i32, ptr %10, align 4
  %26 = load i32, ptr %16, align 4
  %27 = icmp sgt i32 %25, %26
  br i1 %27, label %28, label %88

28:                                               ; preds = %4
  %29 = load ptr, ptr %6, align 8
  %30 = load ptr, ptr %15, align 8
  %31 = load i32, ptr %16, align 4
  %32 = sext i32 %31 to i64
  %33 = call i32 @strncmp(ptr noundef %29, ptr noundef %30, i64 noundef %32) #10
  %34 = icmp ne i32 %33, 0
  br i1 %34, label %35, label %38

35:                                               ; preds = %28
  %36 = load i32, ptr %10, align 4
  %37 = sext i32 %36 to i64
  store i64 %37, ptr %5, align 8
  br label %91

38:                                               ; preds = %28
  %39 = load ptr, ptr %6, align 8
  %40 = load i32, ptr %16, align 4
  %41 = sext i32 %40 to i64
  %42 = getelementptr inbounds i8, ptr %39, i64 %41
  %43 = getelementptr inbounds i8, ptr %42, i64 1
  store ptr %43, ptr %11, align 8
  %44 = load ptr, ptr %11, align 8
  %45 = call ptr @strchr(ptr noundef %44, i32 noundef 59) #10
  store ptr %45, ptr %12, align 8
  %46 = load ptr, ptr %12, align 8
  %47 = icmp eq ptr %46, null
  br i1 %47, label %48, label %50

48:                                               ; preds = %38
  %49 = call i32 (i32, ptr, ...) @logg(i32 noundef 5, ptr noundef @.str.15)
  store i64 0, ptr %5, align 8
  br label %91

50:                                               ; preds = %38
  %51 = load ptr, ptr %12, align 8
  %52 = load ptr, ptr %11, align 8
  %53 = ptrtoint ptr %51 to i64
  %54 = ptrtoint ptr %52 to i64
  %55 = sub i64 %53, %54
  %56 = add nsw i64 %55, 1
  %57 = call noalias ptr @malloc(i64 noundef %56) #11
  store ptr %57, ptr %13, align 8
  %58 = load ptr, ptr %13, align 8
  %59 = icmp eq ptr %58, null
  br i1 %59, label %60, label %62

60:                                               ; preds = %50
  %61 = call i32 (i32, ptr, ...) @logg(i32 noundef 5, ptr noundef @.str.16)
  store i64 0, ptr %5, align 8
  br label %91

62:                                               ; preds = %50
  %63 = load ptr, ptr %13, align 8
  %64 = load ptr, ptr %11, align 8
  %65 = load ptr, ptr %12, align 8
  %66 = load ptr, ptr %11, align 8
  %67 = ptrtoint ptr %65 to i64
  %68 = ptrtoint ptr %66 to i64
  %69 = sub i64 %67, %68
  call void @llvm.memcpy.p0.p0.i64(ptr align 1 %63, ptr align 1 %64, i64 %69, i1 false)
  %70 = load ptr, ptr %13, align 8
  %71 = load ptr, ptr %12, align 8
  %72 = load ptr, ptr %11, align 8
  %73 = ptrtoint ptr %71 to i64
  %74 = ptrtoint ptr %72 to i64
  %75 = sub i64 %73, %74
  %76 = getelementptr inbounds i8, ptr %70, i64 %75
  store i8 0, ptr %76, align 1
  %77 = load ptr, ptr %13, align 8
  %78 = call i32 @strncmp(ptr noundef %77, ptr noundef @.str.17, i64 noundef 19) #10
  %79 = icmp ne i32 %78, 0
  br i1 %79, label %84, label %80

80:                                               ; preds = %62
  %81 = load ptr, ptr %13, align 8
  %82 = load ptr, ptr %14, align 8
  %83 = getelementptr inbounds %struct._header_data, ptr %82, i32 0, i32 1
  store ptr %81, ptr %83, align 8
  br label %87

84:                                               ; preds = %62
  %85 = call i32 (i32, ptr, ...) @logg(i32 noundef 5, ptr noundef @.str.18)
  %86 = load ptr, ptr %13, align 8
  call void @free(ptr noundef %86) #12
  br label %87

87:                                               ; preds = %84, %80
  br label %88

88:                                               ; preds = %87, %4
  %89 = load i32, ptr %10, align 4
  %90 = sext i32 %89 to i64
  store i64 %90, ptr %5, align 8
  br label %91

91:                                               ; preds = %88, %60, %48, %35
  %92 = load i64, ptr %5, align 8
  ret i64 %92
}