; Function Attrs: nounwind uwtable
define dso_local i64 @header_cb(ptr noundef %0, i64 noundef %1, i64 noundef %2, ptr nocapture noundef writeonly %3) #4 {
  %5 = mul i64 %2, %1
  %6 = trunc i64 %5 to i32
  %7 = icmp sgt i32 %6, 11
  br i1 %7, label %8, label %34

8:                                                ; preds = %4
  %9 = tail call i32 @strncmp(ptr noundef nonnull dereferenceable(1) %0, ptr noundef nonnull dereferenceable(12) @.str.14, i64 noundef 11) #14
  %.not = icmp eq i32 %9, 0
  br i1 %.not, label %12, label %10

10:                                               ; preds = %8
  %11 = and i64 %5, 2147483647
  br label %36

12:                                               ; preds = %8
  %13 = getelementptr inbounds i8, ptr %0, i64 12
  %14 = tail call ptr @strchr(ptr noundef nonnull dereferenceable(1) %13, i32 noundef 59) #14
  %15 = icmp eq ptr %14, null
  br i1 %15, label %16, label %18

16:                                               ; preds = %12
  %17 = tail call i32 (i32, ptr, ...) @logg(i32 noundef 5, ptr noundef nonnull @.str.15) #12
  br label %36

18:                                               ; preds = %12
  %19 = ptrtoint ptr %14 to i64
  %20 = ptrtoint ptr %13 to i64
  %21 = sub i64 %19, %20
  %22 = add nsw i64 %21, 1
  %23 = tail call noalias ptr @malloc(i64 noundef %22) #15
  %24 = icmp eq ptr %23, null
  br i1 %24, label %25, label %27

25:                                               ; preds = %18
  %26 = tail call i32 (i32, ptr, ...) @logg(i32 noundef 5, ptr noundef nonnull @.str.16) #12
  br label %36

27:                                               ; preds = %18
  tail call void @llvm.memcpy.p0.p0.i64(ptr nonnull align 1 %23, ptr nonnull align 1 %13, i64 %21, i1 false)
  %28 = getelementptr inbounds i8, ptr %23, i64 %21
  store i8 0, ptr %28, align 1
  %29 = tail call i32 @strncmp(ptr noundef nonnull dereferenceable(1) %23, ptr noundef nonnull dereferenceable(20) @.str.17, i64 noundef 19) #14
  %.not33 = icmp eq i32 %29, 0
  br i1 %.not33, label %30, label %32

30:                                               ; preds = %27
  %31 = getelementptr inbounds i8, ptr %3, i64 8
  store ptr %23, ptr %31, align 8
  br label %34

32:                                               ; preds = %27
  %33 = tail call i32 (i32, ptr, ...) @logg(i32 noundef 5, ptr noundef nonnull @.str.18) #12
  tail call void @free(ptr noundef nonnull %23) #12
  br label %34

34:                                               ; preds = %30, %32, %4
  %sext = shl i64 %5, 32
  %35 = ashr exact i64 %sext, 32
  br label %36

36:                                               ; preds = %34, %25, %16, %10
  %.0 = phi i64 [ %11, %10 ], [ 0, %16 ], [ 0, %25 ], [ %35, %34 ]
  ret i64 %.0
}